target datalayout = "e-m:e-p270:32:32-p271:32:32-p272:64:64-i64:64-i128:128-f80:128-n8:16:32:64-S128"
target triple = "x86_64-pc-linux-gnu"

@.str.1 = private unnamed_addr constant [6 x i8] c"EIGRP\00", align 1
@.str.313 = private unnamed_addr constant [43 x i8] c"Enhanced Interior Gateway Routing Protocol\00", align 1
@.str.314 = private unnamed_addr constant [6 x i8] c"eigrp\00", align 1
@proto_eigrp = internal global i32 0, align 4

; Function Attrs: null_pointer_is_valid sspstrong uwtable
define hidden void @proto_register_eigrp() #0 {
  %1 = alloca ptr, align 8
  call void @llvm.lifetime.start.p0(i64 8, ptr %1) #6
  %2 = call i32 @proto_register_protocol(ptr noundef @.str.313, ptr noundef @.str.1, ptr noundef @.str.314)
  store i32 %2, ptr @proto_eigrp, align 4
  %3 = load i32, ptr @proto_eigrp, align 4
  %4 = call ptr @register_dissector(ptr noundef @.str.314, ptr noundef @dissect_eigrp, i32 noundef %3)
  %5 = load i32, ptr @proto_eigrp, align 4
  call void @proto_register_field_array(i32 noundef %5, ptr noundef @proto_register_eigrp.hf, i32 noundef 128)
  call void @proto_register_subtree_array(ptr noundef @proto_register_eigrp.ett, i32 noundef 12)
  %6 = load i32, ptr @proto_eigrp, align 4
  %7 = call ptr @expert_register_protocol(i32 noundef %6)
  store ptr %7, ptr %1, align 8
  %8 = load ptr, ptr %1, align 8
  call void @expert_register_field_array(ptr noundef %8, ptr noundef @proto_register_eigrp.ei, i32 noundef 12)
  call void @llvm.lifetime.end.p0(i64 8, ptr %1) #6
  ret void
}